target datalayout = "e-m:e-p270:32:32-p271:32:32-p272:64:64-i64:64-i128:128-f80:128-n8:16:32:64-S128"
target triple = "x86_64-pc-linux-gnu"

%struct.KDF_PVK = type { ptr, ptr, i64, ptr, i64, %struct.PROV_DIGEST }
%struct.PROV_DIGEST = type { ptr, ptr, ptr }

@.str = private unnamed_addr constant [51 x i8] c"../openssl/providers/implementations/kdfs/pvkkdf.c\00", align 1
@__func__.kdf_pvk_derive = private unnamed_addr constant [15 x i8] c"kdf_pvk_derive\00", align 1

; Function Attrs: nounwind uwtable
define internal i32 @kdf_pvk_derive(ptr noundef %0, ptr noundef %1, i64 noundef %2, ptr noundef %3) #0 {
  %5 = alloca i32, align 4
  %6 = alloca ptr, align 8
  %7 = alloca ptr, align 8
  %8 = alloca i64, align 8
  %9 = alloca ptr, align 8
  %10 = alloca ptr, align 8
  %11 = alloca ptr, align 8
  %12 = alloca ptr, align 8
  %13 = alloca i32, align 4
  %14 = alloca i32, align 4
  store ptr %0, ptr %6, align 8, !tbaa !3
  store ptr %1, ptr %7, align 8, !tbaa !18
  store i64 %2, ptr %8, align 8, !tbaa !19
  store ptr %3, ptr %9, align 8, !tbaa !20
  call void @llvm.lifetime.start.p0(i64 8, ptr %10) #6
  %15 = load ptr, ptr %6, align 8, !tbaa !3
  store ptr %15, ptr %10, align 8, !tbaa !3
  call void @llvm.lifetime.start.p0(i64 8, ptr %11) #6
  call void @llvm.lifetime.start.p0(i64 8, ptr %12) #6
  call void @llvm.lifetime.start.p0(i64 4, ptr %13) #6
  %16 = call i32 @ossl_prov_is_running()
  %17 = icmp ne i32 %16, 0
  br i1 %17, label %18, label %23

18:                                               ; preds = %4
  %19 = load ptr, ptr %10, align 8, !tbaa !3
  %20 = load ptr, ptr %9, align 8, !tbaa !20
  %21 = call i32 @kdf_pvk_set_ctx_params(ptr noundef %19, ptr noundef %20)
  %22 = icmp ne i32 %21, 0
  br i1 %22, label %24, label %23

23:                                               ; preds = %18, %4
  store i32 0, ptr %5, align 4
  store i32 1, ptr %14, align 4
  br label %94

24:                                               ; preds = %18
  %25 = load ptr, ptr %10, align 8, !tbaa !3
  %26 = getelementptr inbounds nuw %struct.KDF_PVK, ptr %25, i32 0, i32 1
  %27 = load ptr, ptr %26, align 8, !tbaa !16
  %28 = icmp eq ptr %27, null
  br i1 %28, label %29, label %30

29:                                               ; preds = %24
  call void @ERR_new()
  call void @ERR_set_debug(ptr noundef @.str, i32 noundef 145, ptr noundef @__func__.kdf_pvk_derive)
  call void (i32, i32, ptr, ...) @ERR_set_error(i32 noundef 57, i32 noundef 130, ptr noundef null)
  store i32 0, ptr %5, align 4
  store i32 1, ptr %14, align 4
  br label %94

30:                                               ; preds = %24
  %31 = load ptr, ptr %10, align 8, !tbaa !3
  %32 = getelementptr inbounds nuw %struct.KDF_PVK, ptr %31, i32 0, i32 3
  %33 = load ptr, ptr %32, align 8, !tbaa !14
  %34 = icmp eq ptr %33, null
  br i1 %34, label %35, label %36

35:                                               ; preds = %30
  call void @ERR_new()
  call void @ERR_set_debug(ptr noundef @.str, i32 noundef 150, ptr noundef @__func__.kdf_pvk_derive)
  call void (i32, i32, ptr, ...) @ERR_set_error(i32 noundef 57, i32 noundef 131, ptr noundef null)
  store i32 0, ptr %5, align 4
  store i32 1, ptr %14, align 4
  br label %94

36:                                               ; preds = %30
  %37 = load ptr, ptr %10, align 8, !tbaa !3
  %38 = getelementptr inbounds nuw %struct.KDF_PVK, ptr %37, i32 0, i32 5
  %39 = call ptr @ossl_prov_digest_md(ptr noundef %38)
  store ptr %39, ptr %11, align 8, !tbaa !22
  %40 = load ptr, ptr %11, align 8, !tbaa !22
  %41 = icmp eq ptr %40, null
  br i1 %41, label %42, label %43

42:                                               ; preds = %36
  call void @ERR_new()
  call void @ERR_set_debug(ptr noundef @.str, i32 noundef 156, ptr noundef @__func__.kdf_pvk_derive)
  call void (i32, i32, ptr, ...) @ERR_set_error(i32 noundef 57, i32 noundef 122, ptr noundef null)
  store i32 0, ptr %5, align 4
  store i32 1, ptr %14, align 4
  br label %94

43:                                               ; preds = %36
  %44 = load ptr, ptr %11, align 8, !tbaa !22
  %45 = call i32 @EVP_MD_get_size(ptr noundef %44)
  store i32 %45, ptr %13, align 4, !tbaa !23
  %46 = load i32, ptr %13, align 4, !tbaa !23
  %47 = icmp sle i32 %46, 0
  br i1 %47, label %48, label %49

48:                                               ; preds = %43
  call void @ERR_new()
  call void @ERR_set_debug(ptr noundef @.str, i32 noundef 161, ptr noundef @__func__.kdf_pvk_derive)
  call void (i32, i32, ptr, ...) @ERR_set_error(i32 noundef 57, i32 noundef 142, ptr noundef null)
  store i32 0, ptr %5, align 4
  store i32 1, ptr %14, align 4
  br label %94

49:                                               ; preds = %43
  %50 = load i32, ptr %13, align 4, !tbaa !23
  %51 = sext i32 %50 to i64
  %52 = load i64, ptr %8, align 8, !tbaa !19
  %53 = icmp ugt i64 %51, %52
  br i1 %53, label %54, label %55

54:                                               ; preds = %49
  call void @ERR_new()
  call void @ERR_set_debug(ptr noundef @.str, i32 noundef 165, ptr noundef @__func__.kdf_pvk_derive)
  call void (i32, i32, ptr, ...) @ERR_set_error(i32 noundef 57, i32 noundef 202, ptr noundef null)
  store i32 0, ptr %5, align 4
  store i32 1, ptr %14, align 4
  br label %94

55:                                               ; preds = %49
  %56 = call ptr @EVP_MD_CTX_new()
  store ptr %56, ptr %12, align 8, !tbaa !25
  %57 = load ptr, ptr %12, align 8, !tbaa !25
  %58 = icmp ne ptr %57, null
  br i1 %58, label %59, label %89

59:                                               ; preds = %55
  %60 = load ptr, ptr %12, align 8, !tbaa !25
  %61 = load ptr, ptr %11, align 8, !tbaa !22
  %62 = call i32 @EVP_DigestInit_ex(ptr noundef %60, ptr noundef %61, ptr noundef null)
  %63 = icmp ne i32 %62, 0
  br i1 %63, label %64, label %89

64:                                               ; preds = %59
  %65 = load ptr, ptr %12, align 8, !tbaa !25
  %66 = load ptr, ptr %10, align 8, !tbaa !3
  %67 = getelementptr inbounds nuw %struct.KDF_PVK, ptr %66, i32 0, i32 3
  %68 = load ptr, ptr %67, align 8, !tbaa !14
  %69 = load ptr, ptr %10, align 8, !tbaa !3
  %70 = getelementptr inbounds nuw %struct.KDF_PVK, ptr %69, i32 0, i32 4
  %71 = load i64, ptr %70, align 8, !tbaa !15
  %72 = call i32 @EVP_DigestUpdate(ptr noundef %65, ptr noundef %68, i64 noundef %71)
  %73 = icmp ne i32 %72, 0
  br i1 %73, label %74, label %89

74:                                               ; preds = %64
  %75 = load ptr, ptr %12, align 8, !tbaa !25
  %76 = load ptr, ptr %10, align 8, !tbaa !3
  %77 = getelementptr inbounds nuw %struct.KDF_PVK, ptr %76, i32 0, i32 1
  %78 = load ptr, ptr %77, align 8, !tbaa !16
  %79 = load ptr, ptr %10, align 8, !tbaa !3
  %80 = getelementptr inbounds nuw %struct.KDF_PVK, ptr %79, i32 0, i32 2
  %81 = load i64, ptr %80, align 8, !tbaa !17
  %82 = call i32 @EVP_DigestUpdate(ptr noundef %75, ptr noundef %78, i64 noundef %81)
  %83 = icmp ne i32 %82, 0
  br i1 %83, label %84, label %89

84:                                               ; preds = %74
  %85 = load ptr, ptr %12, align 8, !tbaa !25
  %86 = load ptr, ptr %7, align 8, !tbaa !18
  %87 = call i32 @EVP_DigestFinal_ex(ptr noundef %85, ptr noundef %86, ptr noundef null)
  %88 = icmp ne i32 %87, 0
  br label %89

89:                                               ; preds = %84, %74, %64, %59, %55
  %90 = phi i1 [ false, %74 ], [ false, %64 ], [ false, %59 ], [ false, %55 ], [ %88, %84 ]
  %91 = zext i1 %90 to i32
  store i32 %91, ptr %13, align 4, !tbaa !23
  %92 = load ptr, ptr %12, align 8, !tbaa !25
  call void @EVP_MD_CTX_free(ptr noundef %92)
  %93 = load i32, ptr %13, align 4, !tbaa !23
  store i32 %93, ptr %5, align 4
  store i32 1, ptr %14, align 4
  br label %94

94:                                               ; preds = %89, %54, %48, %42, %35, %29, %23
  call void @llvm.lifetime.end.p0(i64 4, ptr %13) #6
  call void @llvm.lifetime.end.p0(i64 8, ptr %12) #6
  call void @llvm.lifetime.end.p0(i64 8, ptr %11) #6
  call void @llvm.lifetime.end.p0(i64 8, ptr %10) #6
  %95 = load i32, ptr %5, align 4
  ret i32 %95
}