; Function Attrs: nounwind uwtable
define internal range(i32 0, 2) i32 @kdf_pvk_derive(ptr noundef %0, ptr noundef %1, i64 noundef %2, ptr noundef %3) #0 {
  %5 = tail call i32 @ossl_prov_is_running() #5
  %.not = icmp eq i32 %5, 0
  br i1 %.not, label %51, label %6

6:                                                ; preds = %4
  %7 = tail call i32 @kdf_pvk_set_ctx_params(ptr noundef %0, ptr noundef %3)
  %.not27 = icmp eq i32 %7, 0
  br i1 %.not27, label %51, label %8

8:                                                ; preds = %6
  %9 = getelementptr inbounds nuw i8, ptr %0, i64 8
  %10 = load ptr, ptr %9, align 8, !tbaa !15
  %11 = icmp eq ptr %10, null
  br i1 %11, label %12, label %13

12:                                               ; preds = %8
  tail call void @ERR_new() #5
  tail call void @ERR_set_debug(ptr noundef nonnull @.str, i32 noundef 145, ptr noundef nonnull @__func__.kdf_pvk_derive) #5
  tail call void (i32, i32, ptr, ...) @ERR_set_error(i32 noundef 57, i32 noundef 130, ptr noundef null) #5
  br label %51

13:                                               ; preds = %8
  %14 = getelementptr inbounds nuw i8, ptr %0, i64 24
  %15 = load ptr, ptr %14, align 8, !tbaa !13
  %16 = icmp eq ptr %15, null
  br i1 %16, label %17, label %18

17:                                               ; preds = %13
  tail call void @ERR_new() #5
  tail call void @ERR_set_debug(ptr noundef nonnull @.str, i32 noundef 150, ptr noundef nonnull @__func__.kdf_pvk_derive) #5
  tail call void (i32, i32, ptr, ...) @ERR_set_error(i32 noundef 57, i32 noundef 131, ptr noundef null) #5
  br label %51

18:                                               ; preds = %13
  %19 = getelementptr inbounds nuw i8, ptr %0, i64 40
  %20 = tail call ptr @ossl_prov_digest_md(ptr noundef nonnull %19) #5
  %21 = icmp eq ptr %20, null
  br i1 %21, label %22, label %23

22:                                               ; preds = %18
  tail call void @ERR_new() #5
  tail call void @ERR_set_debug(ptr noundef nonnull @.str, i32 noundef 156, ptr noundef nonnull @__func__.kdf_pvk_derive) #5
  tail call void (i32, i32, ptr, ...) @ERR_set_error(i32 noundef 57, i32 noundef 122, ptr noundef null) #5
  br label %51

23:                                               ; preds = %18
  %24 = tail call i32 @EVP_MD_get_size(ptr noundef nonnull %20) #5
  %25 = icmp slt i32 %24, 1
  br i1 %25, label %26, label %27

26:                                               ; preds = %23
  tail call void @ERR_new() #5
  tail call void @ERR_set_debug(ptr noundef nonnull @.str, i32 noundef 161, ptr noundef nonnull @__func__.kdf_pvk_derive) #5
  tail call void (i32, i32, ptr, ...) @ERR_set_error(i32 noundef 57, i32 noundef 142, ptr noundef null) #5
  br label %51

27:                                               ; preds = %23
  %28 = zext nneg i32 %24 to i64
  %29 = icmp ult i64 %2, %28
  br i1 %29, label %30, label %31

30:                                               ; preds = %27
  tail call void @ERR_new() #5
  tail call void @ERR_set_debug(ptr noundef nonnull @.str, i32 noundef 165, ptr noundef nonnull @__func__.kdf_pvk_derive) #5
  tail call void (i32, i32, ptr, ...) @ERR_set_error(i32 noundef 57, i32 noundef 202, ptr noundef null) #5
  br label %51

31:                                               ; preds = %27
  %32 = tail call ptr @EVP_MD_CTX_new() #5
  %.not28 = icmp eq ptr %32, null
  br i1 %.not28, label %49, label %33

33:                                               ; preds = %31
  %34 = tail call i32 @EVP_DigestInit_ex(ptr noundef nonnull %32, ptr noundef nonnull %20, ptr noundef null) #5
  %.not29 = icmp eq i32 %34, 0
  br i1 %.not29, label %49, label %35

35:                                               ; preds = %33
  %36 = load ptr, ptr %14, align 8, !tbaa !13
  %37 = getelementptr inbounds nuw i8, ptr %0, i64 32
  %38 = load i64, ptr %37, align 8, !tbaa !14
  %39 = tail call i32 @EVP_DigestUpdate(ptr noundef nonnull %32, ptr noundef %36, i64 noundef %38) #5
  %.not30 = icmp eq i32 %39, 0
  br i1 %.not30, label %49, label %40

40:                                               ; preds = %35
  %41 = load ptr, ptr %9, align 8, !tbaa !15
  %42 = getelementptr inbounds nuw i8, ptr %0, i64 16
  %43 = load i64, ptr %42, align 8, !tbaa !16
  %44 = tail call i32 @EVP_DigestUpdate(ptr noundef nonnull %32, ptr noundef %41, i64 noundef %43) #5
  %.not31 = icmp eq i32 %44, 0
  br i1 %.not31, label %49, label %45

45:                                               ; preds = %40
  %46 = tail call i32 @EVP_DigestFinal_ex(ptr noundef nonnull %32, ptr noundef %1, ptr noundef null) #5
  %47 = icmp ne i32 %46, 0
  %48 = zext i1 %47 to i32
  br label %49

49:                                               ; preds = %45, %40, %35, %33, %31
  %50 = phi i32 [ 0, %40 ], [ 0, %35 ], [ 0, %33 ], [ 0, %31 ], [ %48, %45 ]
  tail call void @EVP_MD_CTX_free(ptr noundef %32) #5
  br label %51

51:                                               ; preds = %4, %6, %49, %30, %26, %22, %17, %12
  %.0 = phi i32 [ 0, %12 ], [ 0, %17 ], [ 0, %22 ], [ 0, %26 ], [ 0, %30 ], [ %50, %49 ], [ 0, %6 ], [ 0, %4 ]
  ret i32 %.0
}